; Function Attrs: mustprogress uwtable
define hidden void @_ZN2cv5utils7logging18LogTagConfigParser8toStringB5cxx11ENS1_8LogLevelE(ptr dead_on_unwind noalias writable sret(%"class.std::__cxx11::basic_string") align 8 %0, i32 noundef %1) local_unnamed_addr #0 align 2 personality ptr @__gxx_personality_v0 {
  %3 = alloca %"class.std::allocator", align 1
  %4 = alloca %"class.std::allocator", align 1
  %5 = alloca %"class.std::allocator", align 1
  %6 = alloca %"class.std::allocator", align 1
  %7 = alloca %"class.std::allocator", align 1
  %8 = alloca %"class.std::allocator", align 1
  %9 = alloca %"class.std::allocator", align 1
  switch i32 %1, label %38 [
    i32 0, label %10
    i32 1, label %14
    i32 2, label %18
    i32 3, label %22
    i32 4, label %26
    i32 5, label %30
    i32 6, label %34
  ]

10:                                               ; preds = %2
  call void @_ZNSaIcEC1Ev(ptr noundef nonnull align 1 dereferenceable(1) %3) #14
  invoke void @_ZNSt7__cxx1112basic_stringIcSt11char_traitsIcESaIcEEC1EPKcRKS3_(ptr noundef nonnull align 8 dereferenceable(32) %0, ptr noundef nonnull @.str.11, ptr noundef nonnull align 1 dereferenceable(1) %3)
          to label %11 unwind label %12

11:                                               ; preds = %10
  call void @_ZNSaIcED1Ev(ptr noundef nonnull align 1 dereferenceable(1) %3) #14
  br label %39

12:                                               ; preds = %10
  %13 = landingpad { ptr, i32 }
          cleanup
  br label %40

14:                                               ; preds = %2
  call void @_ZNSaIcEC1Ev(ptr noundef nonnull align 1 dereferenceable(1) %4) #14
  invoke void @_ZNSt7__cxx1112basic_stringIcSt11char_traitsIcESaIcEEC1EPKcRKS3_(ptr noundef nonnull align 8 dereferenceable(32) %0, ptr noundef nonnull @.str.8, ptr noundef nonnull align 1 dereferenceable(1) %4)
          to label %15 unwind label %16

15:                                               ; preds = %14
  call void @_ZNSaIcED1Ev(ptr noundef nonnull align 1 dereferenceable(1) %4) #14
  br label %39

16:                                               ; preds = %14
  %17 = landingpad { ptr, i32 }
          cleanup
  br label %40

18:                                               ; preds = %2
  call void @_ZNSaIcEC1Ev(ptr noundef nonnull align 1 dereferenceable(1) %5) #14
  invoke void @_ZNSt7__cxx1112basic_stringIcSt11char_traitsIcESaIcEEC1EPKcRKS3_(ptr noundef nonnull align 8 dereferenceable(32) %0, ptr noundef nonnull @.str.7, ptr noundef nonnull align 1 dereferenceable(1) %5)
          to label %19 unwind label %20

19:                                               ; preds = %18
  call void @_ZNSaIcED1Ev(ptr noundef nonnull align 1 dereferenceable(1) %5) #14
  br label %39

20:                                               ; preds = %18
  %21 = landingpad { ptr, i32 }
          cleanup
  br label %40

22:                                               ; preds = %2
  call void @_ZNSaIcEC1Ev(ptr noundef nonnull align 1 dereferenceable(1) %6) #14
  invoke void @_ZNSt7__cxx1112basic_stringIcSt11char_traitsIcESaIcEEC1EPKcRKS3_(ptr noundef nonnull align 8 dereferenceable(32) %0, ptr noundef nonnull @.str.14, ptr noundef nonnull align 1 dereferenceable(1) %6)
          to label %23 unwind label %24

23:                                               ; preds = %22
  call void @_ZNSaIcED1Ev(ptr noundef nonnull align 1 dereferenceable(1) %6) #14
  br label %39

24:                                               ; preds = %22
  %25 = landingpad { ptr, i32 }
          cleanup
  br label %40

26:                                               ; preds = %2
  call void @_ZNSaIcEC1Ev(ptr noundef nonnull align 1 dereferenceable(1) %7) #14
  invoke void @_ZNSt7__cxx1112basic_stringIcSt11char_traitsIcESaIcEEC1EPKcRKS3_(ptr noundef nonnull align 8 dereferenceable(32) %0, ptr noundef nonnull @.str.9, ptr noundef nonnull align 1 dereferenceable(1) %7)
          to label %27 unwind label %28

27:                                               ; preds = %26
  call void @_ZNSaIcED1Ev(ptr noundef nonnull align 1 dereferenceable(1) %7) #14
  br label %39

28:                                               ; preds = %26
  %29 = landingpad { ptr, i32 }
          cleanup
  br label %40

30:                                               ; preds = %2
  call void @_ZNSaIcEC1Ev(ptr noundef nonnull align 1 dereferenceable(1) %8) #14
  invoke void @_ZNSt7__cxx1112basic_stringIcSt11char_traitsIcESaIcEEC1EPKcRKS3_(ptr noundef nonnull align 8 dereferenceable(32) %0, ptr noundef nonnull @.str.4, ptr noundef nonnull align 1 dereferenceable(1) %8)
          to label %31 unwind label %32

31:                                               ; preds = %30
  call void @_ZNSaIcED1Ev(ptr noundef nonnull align 1 dereferenceable(1) %8) #14
  br label %39

32:                                               ; preds = %30
  %33 = landingpad { ptr, i32 }
          cleanup
  br label %40

34:                                               ; preds = %2
  call void @_ZNSaIcEC1Ev(ptr noundef nonnull align 1 dereferenceable(1) %9) #14
  invoke void @_ZNSt7__cxx1112basic_stringIcSt11char_traitsIcESaIcEEC1EPKcRKS3_(ptr noundef nonnull align 8 dereferenceable(32) %0, ptr noundef nonnull @.str.12, ptr noundef nonnull align 1 dereferenceable(1) %9)
          to label %35 unwind label %36

35:                                               ; preds = %34
  call void @_ZNSaIcED1Ev(ptr noundef nonnull align 1 dereferenceable(1) %9) #14
  br label %39

36:                                               ; preds = %34
  %37 = landingpad { ptr, i32 }
          cleanup
  br label %40

38:                                               ; preds = %2
  tail call void @_ZNSt7__cxx119to_stringEi(ptr dead_on_unwind writable sret(%"class.std::__cxx11::basic_string") align 8 %0, i32 noundef %1) #14
  br label %39

39:                                               ; preds = %38, %35, %31, %27, %23, %19, %15, %11
  ret void

40:                                               ; preds = %36, %32, %28, %24, %20, %16, %12
  %.sink = phi ptr [ %9, %36 ], [ %8, %32 ], [ %7, %28 ], [ %6, %24 ], [ %5, %20 ], [ %4, %16 ], [ %3, %12 ]
  %.pn = phi { ptr, i32 } [ %37, %36 ], [ %33, %32 ], [ %29, %28 ], [ %25, %24 ], [ %21, %20 ], [ %17, %16 ], [ %13, %12 ]
  call void @_ZNSaIcED1Ev(ptr noundef nonnull align 1 dereferenceable(1) %.sink) #14
  resume { ptr, i32 } %.pn
}